; Function Attrs: mustprogress uwtable
define hidden void @_ZN6Assimp4Ogre20OgreBinarySerializer16ReadSubMeshNamesEPNS0_4MeshE(ptr nocapture noundef nonnull align 8 dereferenceable(20) %this, ptr noundef %mesh) local_unnamed_addr #2 align 2 personality ptr @__gxx_personality_v0 {
entry:
  %submeshIndex = alloca i16, align 2
  %ref.tmp = alloca %"class.std::__cxx11::basic_string", align 8
  %m_reader.i = getelementptr inbounds i8, ptr %this, i64 8
  %0 = load ptr, ptr %m_reader.i, align 8
  %mEnd.i.i = getelementptr inbounds i8, ptr %0, i64 32
  %1 = load ptr, ptr %mEnd.i.i, align 8
  %mCurrent.i.i = getelementptr inbounds i8, ptr %0, i64 24
  %2 = load ptr, ptr %mCurrent.i.i, align 8
  %sub.ptr.lhs.cast.i.i = ptrtoint ptr %1 to i64
  %sub.ptr.rhs.cast.i.i = ptrtoint ptr %2 to i64
  %sub.ptr.sub.i.i = sub i64 %sub.ptr.lhs.cast.i.i, %sub.ptr.rhs.cast.i.i
  %conv2.i.i = and i64 %sub.ptr.sub.i.i, 4294967295
  %cmp.i = icmp eq i64 %conv2.i.i, 0
  br i1 %cmp.i, label %if.end18, label %if.then

if.then:                                          ; preds = %entry
  %call2 = tail call noundef zeroext i16 @_ZN6Assimp4Ogre20OgreBinarySerializer10ReadHeaderEb(ptr noundef nonnull align 8 dereferenceable(20) %this, i1 noundef zeroext true)
  %3 = load ptr, ptr %m_reader.i, align 8
  %mEnd.i.i540 = getelementptr inbounds i8, ptr %3, i64 32
  %4 = load ptr, ptr %mEnd.i.i540, align 8
  %mCurrent.i.i641 = getelementptr inbounds i8, ptr %3, i64 24
  %5 = load ptr, ptr %mCurrent.i.i641, align 8
  %sub.ptr.lhs.cast.i.i742 = ptrtoint ptr %4 to i64
  %sub.ptr.rhs.cast.i.i843 = ptrtoint ptr %5 to i64
  %sub.ptr.sub.i.i944 = sub i64 %sub.ptr.lhs.cast.i.i742, %sub.ptr.rhs.cast.i.i843
  %conv2.i.i1045 = and i64 %sub.ptr.sub.i.i944, 4294967295
  %cmp.i1146 = icmp eq i64 %conv2.i.i1045, 0
  %cmp47 = icmp ne i16 %call2, -24320
  %.not48 = or i1 %cmp47, %cmp.i1146
  br i1 %.not48, label %while.end, label %while.body

while.body:                                       ; preds = %if.then, %if.end14
  %6 = phi ptr [ %.pre58, %if.end14 ], [ %5, %if.then ]
  %mCurrent.i.i649 = phi ptr [ %mCurrent.i.i6, %if.end14 ], [ %mCurrent.i.i641, %if.then ]
  %7 = phi ptr [ %.pre, %if.end14 ], [ %3, %if.then ]
  %add.ptr.i.i.i = getelementptr inbounds i8, ptr %6, i64 2
  %mLimit.i.i.i = getelementptr inbounds i8, ptr %7, i64 40
  %8 = load ptr, ptr %mLimit.i.i.i, align 8
  %cmp.i.i.i = icmp ugt ptr %add.ptr.i.i.i, %8
  br i1 %cmp.i.i.i, label %if.then.i.i.i, label %_ZN6Assimp4Ogre20OgreBinarySerializer4ReadItEET_v.exit

if.then.i.i.i:                                    ; preds = %while.body
  %exception.i.i.i = call ptr @__cxa_allocate_exception(i64 16) #19
  invoke void @_ZN17DeadlyImportErrorC2EPKc(ptr noundef nonnull align 8 dereferenceable(16) %exception.i.i.i, ptr noundef nonnull @.str.66)
          to label %invoke.cont.i.i.i unwind label %lpad.i.i.i

invoke.cont.i.i.i:                                ; preds = %if.then.i.i.i
  call void @__cxa_throw(ptr nonnull %exception.i.i.i, ptr nonnull @_ZTI17DeadlyImportError, ptr nonnull @_ZN17DeadlyImportErrorD2Ev) #20
  unreachable

common.resume:                                    ; preds = %lpad.i.i, %lpad, %lpad.i.i.i
  %exception.i.i.sink = phi ptr [ %exception.i.i, %lpad.i.i ], [ %exception, %lpad ], [ %exception.i.i.i, %lpad.i.i.i ]
  %common.resume.op = phi { ptr, i32 } [ %16, %lpad.i.i ], [ %11, %lpad ], [ %9, %lpad.i.i.i ]
  call void @__cxa_free_exception(ptr %exception.i.i.sink) #19
  resume { ptr, i32 } %common.resume.op

lpad.i.i.i:                                       ; preds = %if.then.i.i.i
  %9 = landingpad { ptr, i32 }
          cleanup
  br label %common.resume

_ZN6Assimp4Ogre20OgreBinarySerializer4ReadItEET_v.exit: ; preds = %while.body
  %10 = load i16, ptr %6, align 1
  store ptr %add.ptr.i.i.i, ptr %mCurrent.i.i649, align 8
  store i16 %10, ptr %submeshIndex, align 2
  %conv5 = zext i16 %10 to i64
  %call6 = call noundef ptr @_ZNK6Assimp4Ogre4Mesh10GetSubMeshEm(ptr noundef nonnull align 8 dereferenceable(128) %mesh, i64 noundef %conv5)
  %tobool.not = icmp eq ptr %call6, null
  br i1 %tobool.not, label %if.then7, label %if.end

if.then7:                                         ; preds = %_ZN6Assimp4Ogre20OgreBinarySerializer4ReadItEET_v.exit
  %exception = call ptr @__cxa_allocate_exception(i64 16) #19
  invoke void @_ZN17DeadlyImportErrorC2IJRA36_KcRtRA64_S1_EEEDpOT_(ptr noundef nonnull align 8 dereferenceable(16) %exception, ptr noundef nonnull align 1 dereferenceable(36) @.str.24, ptr noundef nonnull align 2 dereferenceable(2) %submeshIndex, ptr noundef nonnull align 1 dereferenceable(64) @.str.25)
          to label %invoke.cont unwind label %lpad

invoke.cont:                                      ; preds = %if.then7
  call void @__cxa_throw(ptr nonnull %exception, ptr nonnull @_ZTI17DeadlyImportError, ptr nonnull @_ZN17DeadlyImportErrorD2Ev) #20
  unreachable

lpad:                                             ; preds = %if.then7
  %11 = landingpad { ptr, i32 }
          cleanup
  br label %common.resume

if.end:                                           ; preds = %_ZN6Assimp4Ogre20OgreBinarySerializer4ReadItEET_v.exit
  call void @_ZN6Assimp4Ogre20OgreBinarySerializer8ReadLineB5cxx11Ev(ptr nonnull sret(%"class.std::__cxx11::basic_string") align 8 %ref.tmp, ptr noundef nonnull align 8 dereferenceable(20) %this)
  %name = getelementptr inbounds i8, ptr %call6, i64 8
  %call8 = call noundef nonnull align 8 dereferenceable(32) ptr @_ZNSt7__cxx1112basic_stringIcSt11char_traitsIcESaIcEEaSEOS4_(ptr noundef nonnull align 8 dereferenceable(32) %name, ptr noundef nonnull align 8 dereferenceable(32) %ref.tmp) #19
  call void @_ZNSt7__cxx1112basic_stringIcSt11char_traitsIcESaIcEED1Ev(ptr noundef nonnull align 8 dereferenceable(32) %ref.tmp) #19
  %call9 = call noundef ptr @_ZN6Assimp13DefaultLogger3getEv()
  call void @_ZN6Assimp6Logger12verboseDebugIJRA13_KcRjRA8_S2_RNSt7__cxx1112basic_stringIcSt11char_traitsIcESaIcEEERA2_S2_EEEvDpOT_(ptr noundef nonnull align 8 dereferenceable(12) %call9, ptr noundef nonnull align 1 dereferenceable(13) @.str.26, ptr noundef nonnull align 4 dereferenceable(4) %call6, ptr noundef nonnull align 1 dereferenceable(8) @.str.27, ptr noundef nonnull align 8 dereferenceable(32) %name, ptr noundef nonnull align 1 dereferenceable(2) @.str.15)
  %12 = load ptr, ptr %m_reader.i, align 8
  %mEnd.i.i14 = getelementptr inbounds i8, ptr %12, i64 32
  %13 = load ptr, ptr %mEnd.i.i14, align 8
  %mCurrent.i.i15 = getelementptr inbounds i8, ptr %12, i64 24
  %14 = load ptr, ptr %mCurrent.i.i15, align 8
  %sub.ptr.lhs.cast.i.i16 = ptrtoint ptr %13 to i64
  %sub.ptr.rhs.cast.i.i17 = ptrtoint ptr %14 to i64
  %sub.ptr.sub.i.i18 = sub i64 %sub.ptr.lhs.cast.i.i16, %sub.ptr.rhs.cast.i.i17
  %conv2.i.i19 = and i64 %sub.ptr.sub.i.i18, 4294967295
  %cmp.i20 = icmp eq i64 %conv2.i.i19, 0
  br i1 %cmp.i20, label %if.end18, label %if.end14

if.end14:                                         ; preds = %if.end
  %call13 = call noundef zeroext i16 @_ZN6Assimp4Ogre20OgreBinarySerializer10ReadHeaderEb(ptr noundef nonnull align 8 dereferenceable(20) %this, i1 noundef zeroext true)
  %.pre = load ptr, ptr %m_reader.i, align 8
  %mEnd.i.i5.phi.trans.insert = getelementptr inbounds i8, ptr %.pre, i64 32
  %.pre57 = load ptr, ptr %mEnd.i.i5.phi.trans.insert, align 8
  %mCurrent.i.i6.phi.trans.insert = getelementptr inbounds i8, ptr %.pre, i64 24
  %.pre58 = load ptr, ptr %mCurrent.i.i6.phi.trans.insert, align 8
  %.pre59 = ptrtoint ptr %.pre57 to i64
  %.pre60 = ptrtoint ptr %.pre58 to i64
  %.pre61 = sub i64 %.pre59, %.pre60
  %.pre62 = and i64 %.pre61, 4294967295
  %mCurrent.i.i6 = getelementptr inbounds i8, ptr %.pre, i64 24
  %cmp.i11 = icmp eq i64 %.pre62, 0
  %cmp = icmp ne i16 %call13, -24320
  %.not = or i1 %cmp, %cmp.i11
  br i1 %.not, label %while.end, label %while.body, !llvm.loop !12

while.end:                                        ; preds = %if.end14, %if.then
  %.lcssa37 = phi ptr [ %3, %if.then ], [ %.pre, %if.end14 ]
  %mCurrent.i.i6.lcssa = phi ptr [ %mCurrent.i.i641, %if.then ], [ %mCurrent.i.i6, %if.end14 ]
  %.lcssa = phi ptr [ %5, %if.then ], [ %.pre58, %if.end14 ]
  %cmp.i11.lcssa = phi i1 [ %cmp.i1146, %if.then ], [ %cmp.i11, %if.end14 ]
  br i1 %cmp.i11.lcssa, label %if.end18, label %if.then16

if.then16:                                        ; preds = %while.end
  %add.ptr.i.i = getelementptr inbounds i8, ptr %.lcssa, i64 -6
  store ptr %add.ptr.i.i, ptr %mCurrent.i.i6.lcssa, align 8
  %mLimit.i.i = getelementptr inbounds i8, ptr %.lcssa37, i64 40
  %15 = load ptr, ptr %mLimit.i.i, align 8
  %cmp.i.i = icmp ugt ptr %add.ptr.i.i, %15
  br i1 %cmp.i.i, label %if.then.i.i, label %if.end18

if.then.i.i:                                      ; preds = %if.then16
  %exception.i.i = call ptr @__cxa_allocate_exception(i64 16) #19
  invoke void @_ZN17DeadlyImportErrorC2EPKc(ptr noundef nonnull align 8 dereferenceable(16) %exception.i.i, ptr noundef nonnull @.str.68)
          to label %invoke.cont.i.i unwind label %lpad.i.i

invoke.cont.i.i:                                  ; preds = %if.then.i.i
  call void @__cxa_throw(ptr nonnull %exception.i.i, ptr nonnull @_ZTI17DeadlyImportError, ptr nonnull @_ZN17DeadlyImportErrorD2Ev) #20
  unreachable

lpad.i.i:                                         ; preds = %if.then.i.i
  %16 = landingpad { ptr, i32 }
          cleanup
  br label %common.resume

if.end18:                                         ; preds = %if.end, %if.then16, %while.end, %entry
  ret void
}